; Function Attrs: nounwind uwtable
define noundef ptr @Hop_ManStart() local_unnamed_addr #0 {
  %calloc18 = tail call dereferenceable_or_null(184) ptr @calloc(i64 1, i64 184)
  %1 = getelementptr inbounds nuw i8, ptr %calloc18, i64 128
  store i32 1, ptr %1, align 8, !tbaa !3
  %2 = getelementptr inbounds nuw i8, ptr %calloc18, i64 132
  store i32 1, ptr %2, align 4, !tbaa !14
  %3 = tail call noalias dereferenceable_or_null(16) ptr @malloc(i64 noundef 16) #13
  %4 = getelementptr inbounds nuw i8, ptr %3, i64 4
  store i32 0, ptr %4, align 4, !tbaa !15
  store i32 100, ptr %3, align 8, !tbaa !17
  %5 = tail call noalias dereferenceable_or_null(800) ptr @malloc(i64 noundef 800) #13
  %6 = getelementptr inbounds nuw i8, ptr %3, i64 8
  store ptr %5, ptr %6, align 8, !tbaa !18
  store ptr %3, ptr %calloc18, align 8, !tbaa !19
  %7 = tail call noalias dereferenceable_or_null(16) ptr @malloc(i64 noundef 16) #13
  %8 = getelementptr inbounds nuw i8, ptr %7, i64 4
  store i32 0, ptr %8, align 4, !tbaa !15
  store i32 100, ptr %7, align 8, !tbaa !17
  %9 = tail call noalias dereferenceable_or_null(800) ptr @malloc(i64 noundef 800) #13
  %10 = getelementptr inbounds nuw i8, ptr %7, i64 8
  store ptr %9, ptr %10, align 8, !tbaa !18
  %11 = getelementptr inbounds nuw i8, ptr %calloc18, i64 8
  store ptr %7, ptr %11, align 8, !tbaa !20
  tail call void @Hop_ManStartMemory(ptr noundef nonnull %calloc18) #14
  %12 = getelementptr inbounds nuw i8, ptr %calloc18, i64 160
  %13 = load ptr, ptr %12, align 8, !tbaa !21
  %14 = icmp eq ptr %13, null
  br i1 %14, label %15, label %16

15:                                               ; preds = %0
  tail call void @Hop_ManAddMemory(ptr noundef nonnull %calloc18) #14
  %.pre.i = load ptr, ptr %12, align 8, !tbaa !21
  br label %16

16:                                               ; preds = %15, %0
  %17 = phi ptr [ %.pre.i, %15 ], [ %13, %0 ]
  %18 = load ptr, ptr %17, align 8, !tbaa !22
  store ptr %18, ptr %12, align 8, !tbaa !21
  tail call void @llvm.memset.p0.i64(ptr noundef nonnull align 8 dereferenceable(40) %17, i8 0, i64 40, i1 false)
  %19 = getelementptr inbounds nuw i8, ptr %calloc18, i64 16
  %20 = load ptr, ptr %19, align 8, !tbaa !23
  %.not.i = icmp eq ptr %20, null
  br i1 %.not.i, label %Hop_ManFetchMemory.exit, label %21

21:                                               ; preds = %16
  %22 = getelementptr inbounds nuw i8, ptr %20, i64 4
  %23 = load i32, ptr %22, align 4, !tbaa !15
  %24 = load i32, ptr %20, align 8, !tbaa !17
  %25 = icmp eq i32 %23, %24
  br i1 %25, label %26, label %.Vec_PtrGrow.exit11_crit_edge.i.i

.Vec_PtrGrow.exit11_crit_edge.i.i:                ; preds = %21
  %.phi.trans.insert.i.i = getelementptr inbounds nuw i8, ptr %20, i64 8
  %.pre.i.i = load ptr, ptr %.phi.trans.insert.i.i, align 8, !tbaa !18
  br label %Vec_PtrPush.exit.i

26:                                               ; preds = %21
  %27 = icmp slt i32 %23, 16
  br i1 %27, label %28, label %36

28:                                               ; preds = %26
  %29 = getelementptr inbounds nuw i8, ptr %20, i64 8
  %30 = load ptr, ptr %29, align 8, !tbaa !18
  %.not9.i.i.i = icmp eq ptr %30, null
  br i1 %.not9.i.i.i, label %33, label %31

31:                                               ; preds = %28
  %32 = tail call dereferenceable_or_null(128) ptr @realloc(ptr noundef nonnull %30, i64 noundef 128) #15
  br label %Vec_PtrGrow.exit.i.i

33:                                               ; preds = %28
  %34 = tail call noalias dereferenceable_or_null(128) ptr @malloc(i64 noundef 128) #13
  br label %Vec_PtrGrow.exit.i.i

Vec_PtrGrow.exit.i.i:                             ; preds = %33, %31
  %35 = phi ptr [ %32, %31 ], [ %34, %33 ]
  store ptr %35, ptr %29, align 8, !tbaa !18
  store i32 16, ptr %20, align 8, !tbaa !17
  br label %Vec_PtrPush.exit.i

36:                                               ; preds = %26
  %37 = shl nuw nsw i32 %23, 1
  %38 = getelementptr inbounds nuw i8, ptr %20, i64 8
  %39 = load ptr, ptr %38, align 8, !tbaa !18
  %.not9.i10.i.i = icmp eq ptr %39, null
  %40 = zext nneg i32 %37 to i64
  %41 = shl nuw nsw i64 %40, 3
  br i1 %.not9.i10.i.i, label %44, label %42

42:                                               ; preds = %36
  %43 = tail call ptr @realloc(ptr noundef nonnull %39, i64 noundef %41) #15
  br label %46

44:                                               ; preds = %36
  %45 = tail call noalias ptr @malloc(i64 noundef %41) #13
  br label %46

46:                                               ; preds = %44, %42
  %47 = phi ptr [ %43, %42 ], [ %45, %44 ]
  store ptr %47, ptr %38, align 8, !tbaa !18
  store i32 %37, ptr %20, align 8, !tbaa !17
  br label %Vec_PtrPush.exit.i

Vec_PtrPush.exit.i:                               ; preds = %46, %Vec_PtrGrow.exit.i.i, %.Vec_PtrGrow.exit11_crit_edge.i.i
  %48 = phi ptr [ %.pre.i.i, %.Vec_PtrGrow.exit11_crit_edge.i.i ], [ %47, %46 ], [ %35, %Vec_PtrGrow.exit.i.i ]
  %49 = load i32, ptr %22, align 4, !tbaa !15
  %50 = add nsw i32 %49, 1
  store i32 %50, ptr %22, align 4, !tbaa !15
  %51 = sext i32 %49 to i64
  %52 = getelementptr inbounds ptr, ptr %48, i64 %51
  store ptr %17, ptr %52, align 8, !tbaa !24
  br label %Hop_ManFetchMemory.exit

Hop_ManFetchMemory.exit:                          ; preds = %16, %Vec_PtrPush.exit.i
  %53 = getelementptr inbounds nuw i8, ptr %calloc18, i64 96
  %54 = load i32, ptr %53, align 8, !tbaa !25
  %55 = add nsw i32 %54, 1
  store i32 %55, ptr %53, align 8, !tbaa !25
  %56 = getelementptr inbounds nuw i8, ptr %17, i64 36
  store i32 %54, ptr %56, align 4, !tbaa !26
  %57 = getelementptr inbounds nuw i8, ptr %calloc18, i64 24
  store ptr %17, ptr %57, align 8, !tbaa !27
  %58 = getelementptr inbounds nuw i8, ptr %17, i64 32
  %59 = load i32, ptr %58, align 8
  %60 = and i32 %59, -8
  %61 = or disjoint i32 %60, 1
  store i32 %61, ptr %58, align 8
  %62 = load ptr, ptr %57, align 8, !tbaa !27
  %63 = getelementptr inbounds nuw i8, ptr %62, i64 32
  %64 = load i32, ptr %63, align 8
  %65 = or i32 %64, 8
  store i32 %65, ptr %63, align 8
  store i32 1, ptr %53, align 8, !tbaa !25
  %66 = getelementptr inbounds nuw i8, ptr %calloc18, i64 112
  store i32 10007, ptr %66, align 8, !tbaa !28
  %calloc = tail call dereferenceable_or_null(80056) ptr @calloc(i64 1, i64 80056)
  %67 = getelementptr inbounds nuw i8, ptr %calloc18, i64 104
  store ptr %calloc, ptr %67, align 8, !tbaa !29
  ret ptr %calloc18
}